target datalayout = "e-m:e-p270:32:32-p271:32:32-p272:64:64-i64:64-i128:128-f80:128-n8:16:32:64-S128"
target triple = "x86_64-pc-linux-gnu"

%struct.lexbor_str_t = type { ptr, i64 }

; Function Attrs: nounwind uwtable
define hidden ptr @lexbor_str_init_append(ptr noundef %0, ptr noundef %1, ptr noundef %2, i64 noundef %3) #0 {
  %5 = alloca ptr, align 8
  %6 = alloca ptr, align 8
  %7 = alloca ptr, align 8
  %8 = alloca ptr, align 8
  %9 = alloca i64, align 8
  %10 = alloca ptr, align 8
  store ptr %0, ptr %6, align 8
  store ptr %1, ptr %7, align 8
  store ptr %2, ptr %8, align 8
  store i64 %3, ptr %9, align 8
  %11 = load ptr, ptr %6, align 8
  %12 = icmp eq ptr %11, null
  br i1 %12, label %13, label %14

13:                                               ; preds = %4
  store ptr null, ptr %5, align 8
  br label %36

14:                                               ; preds = %4
  %15 = load ptr, ptr %7, align 8
  %16 = load i64, ptr %9, align 8
  %17 = add i64 %16, 1
  %18 = call ptr @lexbor_mraw_alloc(ptr noundef %15, i64 noundef %17)
  store ptr %18, ptr %10, align 8
  %19 = load ptr, ptr %10, align 8
  %20 = icmp eq ptr %19, null
  br i1 %20, label %21, label %22

21:                                               ; preds = %14
  store ptr null, ptr %5, align 8
  br label %36

22:                                               ; preds = %14
  %23 = load ptr, ptr %10, align 8
  %24 = load ptr, ptr %8, align 8
  %25 = load i64, ptr %9, align 8
  call void @llvm.memcpy.p0.p0.i64(ptr align 1 %23, ptr align 1 %24, i64 %25, i1 false)
  %26 = load ptr, ptr %10, align 8
  %27 = load i64, ptr %9, align 8
  %28 = getelementptr inbounds i8, ptr %26, i64 %27
  store i8 0, ptr %28, align 1
  %29 = load ptr, ptr %10, align 8
  %30 = load ptr, ptr %6, align 8
  %31 = getelementptr inbounds %struct.lexbor_str_t, ptr %30, i32 0, i32 0
  store ptr %29, ptr %31, align 8
  %32 = load i64, ptr %9, align 8
  %33 = load ptr, ptr %6, align 8
  %34 = getelementptr inbounds %struct.lexbor_str_t, ptr %33, i32 0, i32 1
  store i64 %32, ptr %34, align 8
  %35 = load ptr, ptr %10, align 8
  store ptr %35, ptr %5, align 8
  br label %36

36:                                               ; preds = %22, %21, %13
  %37 = load ptr, ptr %5, align 8
  ret ptr %37
}