; Function Attrs: nounwind uwtable
define hidden ptr @lexbor_str_init_append(ptr noundef writeonly %0, ptr noundef %1, ptr nocapture noundef readonly %2, i64 noundef %3) local_unnamed_addr #0 {
  %5 = icmp eq ptr %0, null
  br i1 %5, label %13, label %6

6:                                                ; preds = %4
  %7 = add i64 %3, 1
  %8 = tail call ptr @lexbor_mraw_alloc(ptr noundef %1, i64 noundef %7) #15
  %9 = icmp eq ptr %8, null
  br i1 %9, label %13, label %10

10:                                               ; preds = %6
  tail call void @llvm.memcpy.p0.p0.i64(ptr nonnull align 1 %8, ptr align 1 %2, i64 %3, i1 false)
  %11 = getelementptr inbounds i8, ptr %8, i64 %3
  store i8 0, ptr %11, align 1
  store ptr %8, ptr %0, align 8
  %12 = getelementptr inbounds i8, ptr %0, i64 8
  store i64 %3, ptr %12, align 8
  br label %13

13:                                               ; preds = %6, %4, %10
  %.0 = phi ptr [ %8, %10 ], [ null, %4 ], [ null, %6 ]
  ret ptr %.0
}